; Function Attrs: null_pointer_is_valid sspstrong uwtable
define internal i32 @dissect_UnsuccessfulOutcomeValue(ptr noundef %0, ptr noundef %1, ptr noundef %2, ptr noundef %3) #0 {
  %5 = getelementptr inbounds nuw i8, ptr %1, i64 408
  %6 = load ptr, ptr %5, align 8
  %7 = load i32, ptr @proto_ngap, align 4
  %8 = tail call ptr @p_get_proto_data(ptr noundef %6, ptr noundef %1, i32 noundef %7, i32 noundef 0)
  %.not.i = icmp eq ptr %8, null
  br i1 %.not.i, label %9, label %ngap_get_private_data.exit

9:                                                ; preds = %4
  %10 = load ptr, ptr %5, align 8
  %11 = tail call noalias dereferenceable_or_null(72) ptr @wmem_alloc0(ptr noundef %10, i64 noundef 72) #13
  %12 = getelementptr inbounds nuw i8, ptr %11, i64 24
  store i32 -1, ptr %12, align 8
  %13 = getelementptr inbounds nuw i8, ptr %11, i64 56
  store i8 -1, ptr %13, align 8
  %14 = load ptr, ptr %5, align 8
  %15 = load i32, ptr @proto_ngap, align 4
  tail call void @p_add_proto_data(ptr noundef %14, ptr noundef %1, i32 noundef %15, i32 noundef 0, ptr noundef %11)
  br label %ngap_get_private_data.exit

ngap_get_private_data.exit:                       ; preds = %4, %9
  %.0.i = phi ptr [ %8, %4 ], [ %11, %9 ]
  %16 = load ptr, ptr @ngap_proc_uout_dissector_table, align 8
  %17 = getelementptr inbounds nuw i8, ptr %.0.i, i64 8
  %18 = load i32, ptr %17, align 8
  %19 = tail call i32 @dissector_try_uint_with_data(ptr noundef %16, i32 noundef %18, ptr noundef %0, ptr noundef %1, ptr noundef %2, i1 noundef zeroext true, ptr noundef %3)
  %.not = icmp eq i32 %19, 0
  br i1 %.not, label %22, label %20

20:                                               ; preds = %ngap_get_private_data.exit
  %21 = tail call i32 @tvb_captured_length(ptr noundef %0)
  br label %22

22:                                               ; preds = %ngap_get_private_data.exit, %20
  %23 = phi i32 [ %21, %20 ], [ 0, %ngap_get_private_data.exit ]
  ret i32 %23
}